; Function Attrs: mustprogress nofree norecurse nosync nounwind willreturn memory(write, argmem: readwrite, inaccessiblemem: none) uwtable
define hidden void @_ZN13ThreadService27reset_contention_count_statEP10JavaThread(ptr nocapture noundef readonly %0) local_unnamed_addr #3 align 2 {
  %2 = getelementptr inbounds i8, ptr %0, i64 1552
  %3 = load ptr, ptr %2, align 8
  %.not = icmp eq ptr %3, null
  br i1 %.not, label %6, label %4

4:                                                ; preds = %1
  %5 = getelementptr inbounds i8, ptr %3, i64 96
  store i8 1, ptr %5, align 8
  br label %6

6:                                                ; preds = %4, %1
  ret void
}